Certificate:
    Data:
        Version: 3 (0x2)
        Serial Number:
            54:64:dd:f2:a5:ef:99:66:dd:5a:a3:2e:78:2c:9a:1e:3d:31:83:10
        Signature Algorithm: sha256WithRSAEncryption
        Issuer: C = FR, ST = IDF, L = Paris, O = NodeOPCUA, CN = NodeOPCUA-TEST
        Validity
            Not Before: Feb  4 12:04:24 2021 GMT
            Not After : Feb  1 12:04:24 2036 GMT
        Subject: C = FR, ST = IDF, L = Paris, O = NodeOPCUA, CN = NodeOPCUA-TEST
        Subject Public Key Info:
            Public Key Algorithm: rsaEncryption
                RSA Public-Key: (2048 bit)
                Modulus:
                    00:e7:57:0c:20:15:ef:d7:da:6a:cf:4b:a0:2e:25:
                    45:dc:ff:f8:3a:fa:41:0f:59:d6:d7:46:19:a2:2b:
                    fa:00:dc:25:d9:41:74:66:65:c1:3d:55:9d:44:87:
                    4f:98:6f:ac:38:fb:c1:06:67:48:34:71:1e:d9:05:
                    cd:5a:dc:b2:b0:0a:24:4a:5a:82:5a:24:5e:85:8d:
                    7e:5f:c6:b2:b2:37:47:bc:39:82:bd:64:db:fd:35:
                    48:75:00:35:75:2a:6b:71:ae:c7:8b:1e:2c:97:3c:
                    9d:f6:ba:d4:4d:bd:a8:75:6e:3e:bc:35:1f:aa:12:
                    3a:ba:a5:3e:1b:1a:b8:c7:13:40:97:d2:7f:cf:a2:
                    13:f6:b0:68:e4:04:64:61:2a:0d:e3:12:46:c4:26:
                    bb:11:be:79:87:7f:90:d6:44:74:0e:9e:66:c6:64:
                    7c:10:77:42:91:d7:22:5f:18:b7:d2:13:a2:b2:75:
                    d0:13:27:40:02:07:91:23:5f:e7:d7:3d:a9:3d:fa:
                    44:d6:58:39:35:b7:ae:3d:3d:d1:61:ae:9b:fe:c3:
                    d8:c5:b2:3c:7e:7f:f7:f1:63:b9:25:79:ed:da:05:
                    51:fa:a2:5f:2b:6b:63:88:63:8d:9a:ec:a8:d2:92:
                    b8:95:24:c1:f5:0e:37:4b:b7:fd:9d:0d:89:a8:22:
                    65:eb
                Exponent: 65537 (0x10001)
        X509v3 extensions:
            X509v3 Subject Key Identifier: 
                2F:94:AC:AF:5F:11:09:0E:7E:7D:15:7E:20:40:3E:CC:62:F8:B1:88
            X509v3 Authority Key Identifier: 
                keyid:2F:94:AC:AF:5F:11:09:0E:7E:7D:15:7E:20:40:3E:CC:62:F8:B1:88

            X509v3 Basic Constraints: critical
                CA:FALSE
            X509v3 Key Usage: 
                Digital Signature, Non Repudiation, Key Encipherment, Data Encipherment, Certificate Sign
            X509v3 Extended Key Usage: 
                TLS Web Client Authentication, TLS Web Server Authentication
            Netscape Comment: 
                Self-signed certificate generated by Node-OPCUA Certificate utility
            X509v3 Subject Alternative Name: 
                URI:urn:gateway-26-01-2021:Node-OPCUA-Server, DNS:gateway-26-01-2021
    Signature Algorithm: sha256WithRSAEncryption
         6d:f0:88:9b:02:47:5e:ca:e0:f2:2d:fb:90:b2:4d:40:82:75:
         12:8a:4e:ae:e2:cb:2b:78:83:48:59:a3:32:d9:d1:f0:79:22:
         d3:e0:7e:df:3e:92:a2:73:4e:af:76:44:01:bf:6e:01:e1:5e:
         ab:e4:0e:50:98:bd:ea:10:8e:c5:01:32:9a:6c:c2:a3:a3:27:
         36:72:de:3d:3d:bd:eb:e7:01:38:16:4d:9a:1d:07:d5:38:35:
         e5:5c:f0:f9:8c:b1:b9:95:a9:75:f9:26:6c:f3:e3:05:d1:be:
         73:be:ee:ca:d7:d3:d1:5c:b2:c0:40:18:91:93:18:00:ff:84:
         19:2d:e1:fa:57:19:05:8c:ad:95:df:60:4e:ec:30:51:9b:fd:
         6e:d7:1e:4a:88:7c:b2:a2:b8:13:ac:01:ff:4d:a1:49:d0:57:
         58:de:34:80:02:36:a9:b6:26:63:c7:d3:9c:0d:3c:5c:c9:f0:
         15:32:9c:18:5d:ec:1d:72:ab:36:92:5c:51:bb:9d:15:20:c0:
         ad:6e:39:5c:a8:52:49:1f:a5:b7:18:b2:78:c8:f8:ea:bc:67:
         ee:37:86:d9:92:ca:6b:8a:ae:53:8e:e3:1c:3f:a2:d7:49:33:
         27:b4:d9:b2:fa:8a:41:ab:f8:eb:68:ac:31:26:a8:96:b4:bf:
         10:bd:76:a3
-----BEGIN CERTIFICATE-----
MIIEWzCCA0OgAwIBAgIUVGTd8qXvmWbdWqMueCyaHj0xgxAwDQYJKoZIhvcNAQEL
BQAwWDELMAkGA1UEBhMCRlIxDDAKBgNVBAgMA0lERjEOMAwGA1UEBwwFUGFyaXMx
EjAQBgNVBAoMCU5vZGVPUENVQTEXMBUGA1UEAwwOTm9kZU9QQ1VBLVRFU1QwHhcN
MjEwMjA0MTIwNDI0WhcNMzYwMjAxMTIwNDI0WjBYMQswCQYDVQQGEwJGUjEMMAoG
A1UECAwDSURGMQ4wDAYDVQQHDAVQYXJpczESMBAGA1UECgwJTm9kZU9QQ1VBMRcw
FQYDVQQDDA5Ob2RlT1BDVUEtVEVTVDCCASIwDQYJKoZIhvcNAQEBBQADggEPADCC
AQoCggEBAOdXDCAV79faas9LoC4lRdz/+Dr6QQ9Z1tdGGaIr+gDcJdlBdGZlwT1V
nUSHT5hvrDj7wQZnSDRxHtkFzVrcsrAKJEpaglokXoWNfl/GsrI3R7w5gr1k2/01
SHUANXUqa3Gux4seLJc8nfa61E29qHVuPrw1H6oSOrqlPhsauMcTQJfSf8+iE/aw
aOQEZGEqDeMSRsQmuxG+eYd/kNZEdA6eZsZkfBB3QpHXIl8Yt9ITorJ10BMnQAIH
kSNf59c9qT36RNZYOTW3rj090WGum/7D2MWyPH5/9/FjuSV57doFUfqiXytrY4hj
jZrsqNKSuJUkwfUON0u3/Z0NiagiZesCAwEAAaOCARswggEXMB0GA1UdDgQWBBQv
lKyvXxEJDn59FX4gQD7MYvixiDAfBgNVHSMEGDAWgBQvlKyvXxEJDn59FX4gQD7M
YvixiDAMBgNVHRMBAf8EAjAAMAsGA1UdDwQEAwIC9DAdBgNVHSUEFjAUBggrBgEF
BQcDAgYIKwYBBQUHAwEwUgYJYIZIAYb4QgENBEUWQ1NlbGYtc2lnbmVkIGNlcnRp
ZmljYXRlIGdlbmVyYXRlZCBieSBOb2RlLU9QQ1VBIENlcnRpZmljYXRlIHV0aWxp
dHkwRwYDVR0RBEAwPoYodXJuOmdhdGV3YXktMjYtMDEtMjAyMTpOb2RlLU9QQ1VB
LVNlcnZlcoISZ2F0ZXdheS0yNi0wMS0yMDIxMA0GCSqGSIb3DQEBCwUAA4IBAQBt
8IibAkdeyuDyLfuQsk1AgnUSik6u4ssreINIWaMy2dHweSLT4H7fPpKic06vdkQB
v24B4V6r5A5QmL3qEI7FATKabMKjoyc2ct49Pb3r5wE4Fk2aHQfVODXlXPD5jLG5
lal1+SZs8+MF0b5zvu7K19PRXLLAQBiRkxgA/4QZLeH6VxkFjK2V32BO7DBRm/1u
1x5KiHyyorgTrAH/TaFJ0FdY3jSAAjaptiZjx9OcDTxcyfAVMpwYXewdcqs2klxR
u50VIMCtbjlcqFJJH6W3GLJ4yPjqvGfuN4bZkspriq5TjuMcP6LXSTMntNmy+opB
q/jraKwxJqiWtL8QvXaj
-----END CERTIFICATE-----
