Certificate:
    Data:
        Version: 3 (0x2)
        Serial Number:
            5a:42:f5:df:76:bf:02:5c:d5:9f:dc:bd:af:74:96:42:0c:ca:8b:b7
        Signature Algorithm: sha256WithRSAEncryption
        Issuer: C = FR, ST = IDF, L = Paris, O = NodeOPCUA, CN = NodeOPCUA-TEST
        Validity
            Not Before: Feb  4 12:04:23 2021 GMT
            Not After : Feb  1 12:04:23 2036 GMT
        Subject: C = FR, ST = IDF, L = Paris, O = NodeOPCUA, CN = NodeOPCUA-TEST
        Subject Public Key Info:
            Public Key Algorithm: rsaEncryption
                RSA Public-Key: (2048 bit)
                Modulus:
                    00:d9:73:a1:23:ce:57:35:99:fa:84:16:7c:7f:ba:
                    52:c2:cb:9e:dd:1e:d1:48:1e:29:20:e3:7d:51:32:
                    25:99:ce:bf:23:1b:f2:33:3f:bd:44:b8:85:5d:a6:
                    7f:f6:29:e7:c3:22:a4:74:d5:87:8d:64:ab:35:33:
                    4a:ea:79:c4:b3:35:49:37:ed:07:1e:3b:c8:71:64:
                    35:de:df:82:60:11:a8:cf:ff:17:96:8b:8a:0e:61:
                    32:35:0f:36:6d:82:76:4c:1a:1c:fc:a7:e7:5d:de:
                    85:52:bf:69:af:b2:14:9d:7f:ac:97:e4:84:bb:01:
                    16:b7:cd:9e:dc:eb:80:c1:2f:d6:aa:b8:46:3f:96:
                    8c:43:f2:cd:3b:6b:09:1f:c8:3a:41:fb:9b:40:fe:
                    cf:36:39:ad:51:60:47:79:f5:b6:a3:33:0c:3d:65:
                    ff:46:a6:cc:f1:dc:b1:a6:17:69:39:d7:5f:d2:59:
                    cc:59:d4:07:8c:c5:37:bf:98:6c:c5:d6:f8:e7:0c:
                    18:f4:fe:47:f3:90:94:e5:b0:c0:cb:2f:48:c2:7b:
                    b2:ee:ce:fe:ed:02:1a:13:53:01:6d:f8:1f:69:60:
                    4d:c3:54:18:51:39:a7:da:18:1a:fe:6a:ec:b9:8c:
                    3c:96:fa:0c:44:19:4a:76:d9:8a:f7:32:f5:f7:b8:
                    0c:11
                Exponent: 65537 (0x10001)
        X509v3 extensions:
            X509v3 Subject Key Identifier: 
                DA:CE:F4:51:11:D7:F0:AE:3B:85:F6:B4:FD:6F:44:F2:CB:84:9A:3C
            X509v3 Authority Key Identifier: 
                keyid:DA:CE:F4:51:11:D7:F0:AE:3B:85:F6:B4:FD:6F:44:F2:CB:84:9A:3C

            X509v3 Basic Constraints: critical
                CA:FALSE
            X509v3 Key Usage: 
                Digital Signature, Non Repudiation, Key Encipherment, Data Encipherment, Certificate Sign
            X509v3 Extended Key Usage: 
                TLS Web Client Authentication, TLS Web Server Authentication
            Netscape Comment: 
                Self-signed certificate generated by Node-OPCUA Certificate utility
            X509v3 Subject Alternative Name: 
                URI:urn:gateway-26-01-2021:Node-OPCUA-Server, DNS:gateway-26-01-2021
    Signature Algorithm: sha256WithRSAEncryption
         7e:38:27:6f:8c:1e:13:7a:d4:a2:12:d0:6d:94:ab:f9:fa:26:
         da:c0:62:bb:34:1e:ab:ff:9e:41:36:4b:18:a0:c5:23:8b:1e:
         da:3c:1f:49:ec:88:cf:73:c8:51:79:43:36:8b:b5:aa:6b:1f:
         f6:17:bb:b8:6b:f4:75:9f:d5:5d:8d:c0:b0:d6:11:2f:71:21:
         a1:01:ae:c9:77:90:05:2f:f3:63:2c:14:58:c2:83:f5:9d:59:
         af:59:81:8e:bf:c5:73:aa:aa:8c:b6:9a:e2:f4:72:fb:f9:6a:
         d2:8b:91:af:b9:d5:7a:a2:36:8a:02:a8:eb:cf:d4:8a:dc:a9:
         d8:5d:28:0c:c4:da:e5:57:4c:36:de:19:c8:83:cd:e0:af:5a:
         11:5c:03:18:56:49:cc:a7:f8:46:4b:ed:98:a3:3f:e8:5f:49:
         f7:23:65:47:c7:21:e9:92:ca:63:d5:41:d5:ca:c1:11:95:79:
         46:e1:8d:b2:56:5a:c8:b9:96:9f:5d:e2:6f:54:9a:72:c1:29:
         dd:36:64:5e:48:cb:71:7b:57:a6:f2:f8:2f:c0:6b:b4:2a:04:
         01:80:77:cc:6b:b8:37:70:b3:09:9e:66:2f:ef:88:89:77:28:
         0a:8a:c3:47:71:29:aa:36:21:71:7c:b1:cc:13:a9:56:9a:cd:
         f2:69:35:f7
-----BEGIN CERTIFICATE-----
MIIEWzCCA0OgAwIBAgIUWkL133a/AlzVn9y9r3SWQgzKi7cwDQYJKoZIhvcNAQEL
BQAwWDELMAkGA1UEBhMCRlIxDDAKBgNVBAgMA0lERjEOMAwGA1UEBwwFUGFyaXMx
EjAQBgNVBAoMCU5vZGVPUENVQTEXMBUGA1UEAwwOTm9kZU9QQ1VBLVRFU1QwHhcN
MjEwMjA0MTIwNDIzWhcNMzYwMjAxMTIwNDIzWjBYMQswCQYDVQQGEwJGUjEMMAoG
A1UECAwDSURGMQ4wDAYDVQQHDAVQYXJpczESMBAGA1UECgwJTm9kZU9QQ1VBMRcw
FQYDVQQDDA5Ob2RlT1BDVUEtVEVTVDCCASIwDQYJKoZIhvcNAQEBBQADggEPADCC
AQoCggEBANlzoSPOVzWZ+oQWfH+6UsLLnt0e0UgeKSDjfVEyJZnOvyMb8jM/vUS4
hV2mf/Yp58MipHTVh41kqzUzSup5xLM1STftBx47yHFkNd7fgmARqM//F5aLig5h
MjUPNm2CdkwaHPyn513ehVK/aa+yFJ1/rJfkhLsBFrfNntzrgMEv1qq4Rj+WjEPy
zTtrCR/IOkH7m0D+zzY5rVFgR3n1tqMzDD1l/0amzPHcsaYXaTnXX9JZzFnUB4zF
N7+YbMXW+OcMGPT+R/OQlOWwwMsvSMJ7su7O/u0CGhNTAW34H2lgTcNUGFE5p9oY
Gv5q7LmMPJb6DEQZSnbZivcy9fe4DBECAwEAAaOCARswggEXMB0GA1UdDgQWBBTa
zvRREdfwrjuF9rT9b0Tyy4SaPDAfBgNVHSMEGDAWgBTazvRREdfwrjuF9rT9b0Ty
y4SaPDAMBgNVHRMBAf8EAjAAMAsGA1UdDwQEAwIC9DAdBgNVHSUEFjAUBggrBgEF
BQcDAgYIKwYBBQUHAwEwUgYJYIZIAYb4QgENBEUWQ1NlbGYtc2lnbmVkIGNlcnRp
ZmljYXRlIGdlbmVyYXRlZCBieSBOb2RlLU9QQ1VBIENlcnRpZmljYXRlIHV0aWxp
dHkwRwYDVR0RBEAwPoYodXJuOmdhdGV3YXktMjYtMDEtMjAyMTpOb2RlLU9QQ1VB
LVNlcnZlcoISZ2F0ZXdheS0yNi0wMS0yMDIxMA0GCSqGSIb3DQEBCwUAA4IBAQB+
OCdvjB4TetSiEtBtlKv5+ibawGK7NB6r/55BNksYoMUjix7aPB9J7IjPc8hReUM2
i7Wqax/2F7u4a/R1n9VdjcCw1hEvcSGhAa7Jd5AFL/NjLBRYwoP1nVmvWYGOv8Vz
qqqMtpri9HL7+WrSi5GvudV6ojaKAqjrz9SK3KnYXSgMxNrlV0w23hnIg83gr1oR
XAMYVknMp/hGS+2Yoz/oX0n3I2VHxyHpkspj1UHVysERlXlG4Y2yVlrIuZafXeJv
VJpywSndNmReSMtxe1em8vgvwGu0KgQBgHfMa7g3cLMJnmYv74iJdygKisNHcSmq
NiFxfLHME6lWms3yaTX3
-----END CERTIFICATE-----
