Certificate:
    Data:
        Version: 3 (0x2)
        Serial Number:
            16:e0:eb:8b:30:f0:b5:38:83:92:a6:d5:bc:d5:77:af:49:b1:d9:5b
        Signature Algorithm: sha256WithRSAEncryption
        Issuer: C = FR, ST = IDF, L = Paris, O = NodeOPCUA, CN = NodeOPCUA-TEST
        Validity
            Not Before: Feb  4 12:04:23 2021 GMT
            Not After : Feb  1 12:04:23 2036 GMT
        Subject: C = FR, ST = IDF, L = Paris, O = NodeOPCUA, CN = NodeOPCUA-TEST
        Subject Public Key Info:
            Public Key Algorithm: rsaEncryption
                RSA Public-Key: (2048 bit)
                Modulus:
                    00:b6:42:ba:57:12:28:b0:0f:63:80:f6:8e:f9:ba:
                    1d:a5:f8:af:f2:59:38:f1:a1:cf:96:29:82:2e:ea:
                    a9:94:80:28:6b:cb:04:03:27:ed:31:75:97:5b:a6:
                    e8:7b:5e:41:e8:df:1f:14:2a:30:e2:61:e9:88:d8:
                    7b:83:a5:0b:b1:ce:18:5f:66:bf:9e:be:d5:08:f3:
                    e5:8a:e9:b2:1f:92:7d:f6:8e:03:ce:60:d6:5e:a1:
                    94:08:8d:56:47:7b:4c:93:8e:5e:6a:b5:e2:f0:3a:
                    08:c3:8f:26:e5:8c:15:d2:98:11:6b:04:30:0c:59:
                    fb:c3:f4:10:45:a5:4c:87:70:0f:26:50:ee:a9:c9:
                    50:21:33:1d:aa:9b:81:cc:20:6e:d3:1e:26:52:e5:
                    b0:d0:57:d6:9e:6f:a2:6c:2e:c7:16:6e:32:a6:51:
                    c6:f0:21:b6:fb:a2:be:72:b8:50:2e:b9:82:15:4e:
                    97:2d:81:97:22:88:bd:6d:af:f0:77:6f:dc:ac:58:
                    b3:a8:f1:09:8d:a2:02:e7:81:c2:ae:e2:41:b8:54:
                    a4:2d:df:ad:be:bd:aa:1d:22:df:fa:c8:4e:9a:d7:
                    33:a7:ed:3b:b4:9c:5a:79:b2:37:7e:db:01:af:2a:
                    cf:fa:cb:98:9a:28:91:a8:f5:47:31:07:d9:52:ef:
                    f3:47
                Exponent: 65537 (0x10001)
        X509v3 extensions:
            X509v3 Subject Key Identifier: 
                07:DD:39:02:FC:0E:B4:0B:22:D0:49:85:B7:63:9D:8E:5F:6A:00:13
            X509v3 Authority Key Identifier: 
                keyid:07:DD:39:02:FC:0E:B4:0B:22:D0:49:85:B7:63:9D:8E:5F:6A:00:13

            X509v3 Basic Constraints: critical
                CA:FALSE
            X509v3 Key Usage: 
                Digital Signature, Non Repudiation, Key Encipherment, Data Encipherment, Certificate Sign
            X509v3 Extended Key Usage: 
                TLS Web Client Authentication, TLS Web Server Authentication
            Netscape Comment: 
                Self-signed certificate generated by Node-OPCUA Certificate utility
            X509v3 Subject Alternative Name: 
                URI:urn:gateway-26-01-2021:Node-OPCUA-Server, DNS:gateway-26-01-2021
    Signature Algorithm: sha256WithRSAEncryption
         8c:c2:35:d2:26:a7:36:2d:94:77:13:f0:be:70:4d:e3:8f:a9:
         d0:df:9b:f8:04:6e:9a:42:58:23:53:15:36:22:f8:98:d1:75:
         e7:d8:e9:c8:e7:49:28:5e:69:03:e5:f7:3f:5d:94:a8:91:7e:
         4c:46:fe:3d:de:48:87:59:a2:39:91:18:ee:a2:7c:85:a6:59:
         8a:7a:13:00:52:73:46:ef:55:33:c5:ab:ee:4d:9e:13:de:43:
         9d:d3:a9:a0:38:16:56:cf:3d:a4:bc:f0:a4:42:29:1b:21:8b:
         cf:55:81:51:f0:59:ac:cc:21:a7:5d:7e:a5:13:93:b0:3a:45:
         bc:3f:89:08:50:98:ce:30:f2:fa:8f:73:39:dc:16:3f:bd:d2:
         a9:c8:3c:32:ac:82:ec:32:fd:6c:6b:06:98:d0:32:74:76:8d:
         0c:74:d6:10:30:d1:d5:03:db:bf:98:6d:3c:c3:d8:3a:3e:95:
         ea:12:45:01:b4:dc:20:84:a8:f2:97:b5:3e:ef:11:8b:4e:ca:
         df:7e:98:98:a3:24:dd:d1:03:dc:51:f0:3e:a8:e1:67:80:22:
         77:f9:13:ae:36:0b:34:61:29:37:67:d9:7d:53:65:3f:43:ac:
         df:78:db:71:93:a9:7d:1c:35:82:0a:25:d6:8f:57:8f:eb:3f:
         cb:42:b7:92
-----BEGIN CERTIFICATE-----
MIIEWzCCA0OgAwIBAgIUFuDrizDwtTiDkqbVvNV3r0mx2VswDQYJKoZIhvcNAQEL
BQAwWDELMAkGA1UEBhMCRlIxDDAKBgNVBAgMA0lERjEOMAwGA1UEBwwFUGFyaXMx
EjAQBgNVBAoMCU5vZGVPUENVQTEXMBUGA1UEAwwOTm9kZU9QQ1VBLVRFU1QwHhcN
MjEwMjA0MTIwNDIzWhcNMzYwMjAxMTIwNDIzWjBYMQswCQYDVQQGEwJGUjEMMAoG
A1UECAwDSURGMQ4wDAYDVQQHDAVQYXJpczESMBAGA1UECgwJTm9kZU9QQ1VBMRcw
FQYDVQQDDA5Ob2RlT1BDVUEtVEVTVDCCASIwDQYJKoZIhvcNAQEBBQADggEPADCC
AQoCggEBALZCulcSKLAPY4D2jvm6HaX4r/JZOPGhz5Ypgi7qqZSAKGvLBAMn7TF1
l1um6HteQejfHxQqMOJh6YjYe4OlC7HOGF9mv56+1Qjz5Yrpsh+SffaOA85g1l6h
lAiNVkd7TJOOXmq14vA6CMOPJuWMFdKYEWsEMAxZ+8P0EEWlTIdwDyZQ7qnJUCEz
HaqbgcwgbtMeJlLlsNBX1p5vomwuxxZuMqZRxvAhtvuivnK4UC65ghVOly2BlyKI
vW2v8Hdv3KxYs6jxCY2iAueBwq7iQbhUpC3frb69qh0i3/rITprXM6ftO7ScWnmy
N37bAa8qz/rLmJookaj1RzEH2VLv80cCAwEAAaOCARswggEXMB0GA1UdDgQWBBQH
3TkC/A60CyLQSYW3Y52OX2oAEzAfBgNVHSMEGDAWgBQH3TkC/A60CyLQSYW3Y52O
X2oAEzAMBgNVHRMBAf8EAjAAMAsGA1UdDwQEAwIC9DAdBgNVHSUEFjAUBggrBgEF
BQcDAgYIKwYBBQUHAwEwUgYJYIZIAYb4QgENBEUWQ1NlbGYtc2lnbmVkIGNlcnRp
ZmljYXRlIGdlbmVyYXRlZCBieSBOb2RlLU9QQ1VBIENlcnRpZmljYXRlIHV0aWxp
dHkwRwYDVR0RBEAwPoYodXJuOmdhdGV3YXktMjYtMDEtMjAyMTpOb2RlLU9QQ1VB
LVNlcnZlcoISZ2F0ZXdheS0yNi0wMS0yMDIxMA0GCSqGSIb3DQEBCwUAA4IBAQCM
wjXSJqc2LZR3E/C+cE3jj6nQ35v4BG6aQlgjUxU2IviY0XXn2OnI50koXmkD5fc/
XZSokX5MRv493kiHWaI5kRjuonyFplmKehMAUnNG71UzxavuTZ4T3kOd06mgOBZW
zz2kvPCkQikbIYvPVYFR8FmszCGnXX6lE5OwOkW8P4kIUJjOMPL6j3M53BY/vdKp
yDwyrILsMv1sawaY0DJ0do0MdNYQMNHVA9u/mG08w9g6PpXqEkUBtNwghKjyl7U+
7xGLTsrffpiYoyTd0QPcUfA+qOFngCJ3+ROuNgs0YSk3Z9l9U2U/Q6zfeNtxk6l9
HDWCCiXWj1eP6z/LQreS
-----END CERTIFICATE-----
