Certificate:
    Data:
        Version: 3 (0x2)
        Serial Number:
            23:ef:d8:ce:bf:46:c6:c5:05:09:fa:9d:6e:6c:66:96:57:7c:4f:54
        Signature Algorithm: sha256WithRSAEncryption
        Issuer: C = FR, ST = IDF, L = Paris, O = NodeOPCUA, CN = NodeOPCUA-TEST
        Validity
            Not Before: Feb  4 12:04:23 2021 GMT
            Not After : Feb  1 12:04:23 2036 GMT
        Subject: C = FR, ST = IDF, L = Paris, O = NodeOPCUA, CN = NodeOPCUA-TEST
        Subject Public Key Info:
            Public Key Algorithm: rsaEncryption
                RSA Public-Key: (2048 bit)
                Modulus:
                    00:c0:e6:b5:a9:11:83:87:29:26:a7:74:81:00:71:
                    5a:d3:3e:5c:fd:b2:a3:69:ac:51:41:c3:92:98:c5:
                    2d:fc:03:d7:44:d3:1f:a8:b0:0f:df:4a:1e:ea:78:
                    86:32:d4:b7:7f:cd:9e:7d:42:6b:12:00:d3:3e:84:
                    45:bb:9c:dc:a2:a7:0f:78:93:5e:6c:c3:99:a1:53:
                    a7:bc:86:39:3f:04:f6:65:29:b8:7d:37:08:4e:f3:
                    af:c9:c0:1f:9d:f2:fa:bd:23:28:9f:c7:0f:ff:3e:
                    c9:78:04:8a:2d:5b:56:ed:83:86:6a:35:ab:c1:c9:
                    f8:86:78:f2:5d:b7:29:d8:f4:d6:e5:84:c7:c6:52:
                    cd:6a:b7:95:93:e7:eb:de:b4:b2:ef:08:19:c3:0b:
                    1c:36:f0:b7:f4:b4:34:cc:7c:b4:81:a4:ca:cf:4a:
                    cf:25:fb:a1:1c:53:df:69:49:c3:02:81:88:f9:f6:
                    14:93:c9:f8:85:66:1c:ea:62:fb:11:ee:4f:33:c2:
                    36:08:33:c3:4f:21:a8:58:f3:72:2d:a9:19:6c:37:
                    5d:07:d4:f8:54:f9:22:ca:d6:a0:5c:57:da:b7:3f:
                    48:6f:32:b9:f6:15:70:38:42:72:c6:e3:15:55:9f:
                    ab:11:8b:3e:48:e8:cf:ec:dc:df:24:83:e7:f1:6d:
                    db:dd
                Exponent: 65537 (0x10001)
        X509v3 extensions:
            X509v3 Subject Key Identifier: 
                93:5A:42:8D:8B:85:72:04:D2:49:F1:E5:5C:4A:89:18:8A:21:95:AD
            X509v3 Authority Key Identifier: 
                keyid:93:5A:42:8D:8B:85:72:04:D2:49:F1:E5:5C:4A:89:18:8A:21:95:AD

            X509v3 Basic Constraints: critical
                CA:FALSE
            X509v3 Key Usage: 
                Digital Signature, Non Repudiation, Key Encipherment, Data Encipherment, Certificate Sign
            X509v3 Extended Key Usage: 
                TLS Web Client Authentication, TLS Web Server Authentication
            Netscape Comment: 
                Self-signed certificate generated by Node-OPCUA Certificate utility
            X509v3 Subject Alternative Name: 
                URI:urn:gateway-26-01-2021:Node-OPCUA-Server, DNS:gateway-26-01-2021
    Signature Algorithm: sha256WithRSAEncryption
         32:f1:6f:cf:48:3b:f2:a6:36:2b:9c:c8:55:b8:63:9d:97:f6:
         e0:bb:9c:71:5b:82:09:4f:41:f4:71:70:5e:a4:9a:e6:74:fe:
         b1:35:2b:43:5c:2b:bf:f9:4a:4f:ff:d9:46:2f:52:c4:4c:6d:
         02:25:5f:8d:b6:9b:c2:32:f5:02:53:6e:e4:6e:34:6d:8e:86:
         a6:08:25:da:34:7d:d1:8b:0a:cd:08:87:88:3e:3e:dd:df:9d:
         70:98:85:30:f6:35:95:33:a7:c7:1d:49:27:06:56:06:cf:8b:
         67:1e:b4:18:eb:0e:2e:00:24:ef:42:df:30:d0:c0:f2:30:64:
         23:c0:2e:43:53:60:86:a4:8a:79:74:55:9b:3a:30:94:00:bf:
         89:e3:ec:4a:ae:cc:cc:ed:7e:fd:d9:9c:83:6b:2f:98:9f:45:
         e0:27:e9:e0:3a:7e:4c:51:b8:dd:43:30:0f:66:66:3f:01:d1:
         f3:b2:b6:59:c3:23:8a:49:9a:7e:be:f8:bf:19:18:93:0a:a1:
         22:28:f2:5a:50:09:d9:d7:ce:ad:48:8a:f1:16:f6:07:e4:45:
         32:ba:80:82:1b:14:1b:28:49:40:78:1b:29:d0:41:e7:31:07:
         cc:b0:12:77:37:09:fc:56:44:c5:f0:44:dd:a2:95:ab:8c:37:
         77:83:24:6f
-----BEGIN CERTIFICATE-----
MIIEWzCCA0OgAwIBAgIUI+/Yzr9GxsUFCfqdbmxmlld8T1QwDQYJKoZIhvcNAQEL
BQAwWDELMAkGA1UEBhMCRlIxDDAKBgNVBAgMA0lERjEOMAwGA1UEBwwFUGFyaXMx
EjAQBgNVBAoMCU5vZGVPUENVQTEXMBUGA1UEAwwOTm9kZU9QQ1VBLVRFU1QwHhcN
MjEwMjA0MTIwNDIzWhcNMzYwMjAxMTIwNDIzWjBYMQswCQYDVQQGEwJGUjEMMAoG
A1UECAwDSURGMQ4wDAYDVQQHDAVQYXJpczESMBAGA1UECgwJTm9kZU9QQ1VBMRcw
FQYDVQQDDA5Ob2RlT1BDVUEtVEVTVDCCASIwDQYJKoZIhvcNAQEBBQADggEPADCC
AQoCggEBAMDmtakRg4cpJqd0gQBxWtM+XP2yo2msUUHDkpjFLfwD10TTH6iwD99K
Hup4hjLUt3/Nnn1CaxIA0z6ERbuc3KKnD3iTXmzDmaFTp7yGOT8E9mUpuH03CE7z
r8nAH53y+r0jKJ/HD/8+yXgEii1bVu2Dhmo1q8HJ+IZ48l23Kdj01uWEx8ZSzWq3
lZPn6960su8IGcMLHDbwt/S0NMx8tIGkys9KzyX7oRxT32lJwwKBiPn2FJPJ+IVm
HOpi+xHuTzPCNggzw08hqFjzci2pGWw3XQfU+FT5IsrWoFxX2rc/SG8yufYVcDhC
csbjFVWfqxGLPkjoz+zc3ySD5/Ft290CAwEAAaOCARswggEXMB0GA1UdDgQWBBST
WkKNi4VyBNJJ8eVcSokYiiGVrTAfBgNVHSMEGDAWgBSTWkKNi4VyBNJJ8eVcSokY
iiGVrTAMBgNVHRMBAf8EAjAAMAsGA1UdDwQEAwIC9DAdBgNVHSUEFjAUBggrBgEF
BQcDAgYIKwYBBQUHAwEwUgYJYIZIAYb4QgENBEUWQ1NlbGYtc2lnbmVkIGNlcnRp
ZmljYXRlIGdlbmVyYXRlZCBieSBOb2RlLU9QQ1VBIENlcnRpZmljYXRlIHV0aWxp
dHkwRwYDVR0RBEAwPoYodXJuOmdhdGV3YXktMjYtMDEtMjAyMTpOb2RlLU9QQ1VB
LVNlcnZlcoISZ2F0ZXdheS0yNi0wMS0yMDIxMA0GCSqGSIb3DQEBCwUAA4IBAQAy
8W/PSDvypjYrnMhVuGOdl/bgu5xxW4IJT0H0cXBepJrmdP6xNStDXCu/+UpP/9lG
L1LETG0CJV+NtpvCMvUCU27kbjRtjoamCCXaNH3RiwrNCIeIPj7d351wmIUw9jWV
M6fHHUknBlYGz4tnHrQY6w4uACTvQt8w0MDyMGQjwC5DU2CGpIp5dFWbOjCUAL+J
4+xKrszM7X792ZyDay+Yn0XgJ+ngOn5MUbjdQzAPZmY/AdHzsrZZwyOKSZp+vvi/
GRiTCqEiKPJaUAnZ186tSIrxFvYH5EUyuoCCGxQbKElAeBsp0EHnMQfMsBJ3Nwn8
VkTF8ETdopWrjDd3gyRv
-----END CERTIFICATE-----
