Certificate:
    Data:
        Version: 3 (0x2)
        Serial Number:
            2f:56:0e:b0:04:3a:24:82:9d:80:47:3e:40:85:89:38:14:7a:cc:f3
        Signature Algorithm: sha256WithRSAEncryption
        Issuer: C = BE, ST = East-Flanders, L = Ghent, O = FACTRY BVBA, CN = FACTRY_OPCUA_LOGGER
        Validity
            Not Before: Feb  4 12:04:24 2021 GMT
            Not After : Feb  1 12:04:24 2036 GMT
        Subject: C = BE, ST = East-Flanders, L = Ghent, O = FACTRY BVBA, CN = FACTRY_OPCUA_LOGGER
        Subject Public Key Info:
            Public Key Algorithm: rsaEncryption
                RSA Public-Key: (2048 bit)
                Modulus:
                    00:c6:d4:44:a2:51:b8:77:f9:31:13:e8:d8:98:df:
                    c1:78:4b:27:1f:b1:84:15:d7:c0:65:82:1e:2a:48:
                    75:7e:31:9a:93:12:7b:08:7c:45:15:9a:04:db:3c:
                    7b:9f:a9:d0:26:23:a4:02:10:05:69:e9:ac:a8:16:
                    1b:43:7d:8d:a3:3a:84:20:31:2c:36:d5:67:b5:9b:
                    ac:9e:95:f1:d8:03:28:7b:ce:9c:ad:49:d9:60:82:
                    31:e2:1f:be:bc:20:33:6d:e2:b8:36:b4:4d:48:11:
                    2f:25:7b:42:3e:25:51:e8:f4:9c:ec:1b:e3:4a:f2:
                    b9:fc:b1:0b:10:cd:0e:5b:1a:8b:cc:05:f3:bf:63:
                    91:31:6a:47:2f:d9:c1:09:72:f9:92:b9:d6:f8:87:
                    69:aa:22:22:49:1c:a5:0b:f9:50:ab:6a:26:d2:15:
                    ca:ef:9c:08:ed:b7:36:10:19:e6:c4:7b:3d:e0:3b:
                    90:bf:56:6b:9f:6a:72:d9:a9:fd:ea:20:12:07:54:
                    ae:94:58:f1:09:ea:ef:25:db:d7:f7:0f:d5:74:9f:
                    60:01:78:93:10:80:73:8c:4a:82:7c:26:fd:4d:c1:
                    82:54:36:89:bf:3b:e4:e2:4f:c5:87:3e:21:21:2c:
                    2d:8f:e2:8e:36:f3:d6:e9:36:61:95:42:ed:65:c3:
                    d6:ff
                Exponent: 65537 (0x10001)
        X509v3 extensions:
            X509v3 Subject Key Identifier: 
                F1:8F:30:E0:9A:5A:B7:9F:95:A1:18:00:08:0D:14:69:4F:68:4D:50
            X509v3 Authority Key Identifier: 
                keyid:F1:8F:30:E0:9A:5A:B7:9F:95:A1:18:00:08:0D:14:69:4F:68:4D:50

            X509v3 Basic Constraints: critical
                CA:FALSE
            X509v3 Key Usage: 
                Digital Signature, Non Repudiation, Key Encipherment, Data Encipherment, Certificate Sign
            X509v3 Extended Key Usage: 
                TLS Web Client Authentication, TLS Web Server Authentication
            Netscape Comment: 
                Self-signed certificate generated by Node-OPCUA Certificate utility
            X509v3 Subject Alternative Name: 
                URI:urn:factry.io/opcua, DNS:gateway-26-01-2021
    Signature Algorithm: sha256WithRSAEncryption
         08:01:d3:86:2a:6f:13:19:37:50:dc:49:89:86:62:5b:8b:0e:
         9e:8f:54:ab:03:2f:79:88:d6:08:1a:9a:12:75:48:19:65:ab:
         29:81:e6:06:bd:46:57:9e:86:16:f3:8c:dd:ee:83:ec:d7:d5:
         57:80:49:30:86:91:91:f9:27:32:9e:50:46:a0:21:aa:4c:b3:
         c5:e8:f6:cb:1a:f8:c0:7f:64:40:83:f9:02:99:da:18:aa:70:
         b7:e7:c0:89:ea:74:38:c5:85:0f:e1:f5:10:3e:08:ff:cd:46:
         70:dd:75:e6:d1:82:56:54:d0:5a:a3:b0:2c:97:5e:cd:2f:5d:
         c6:34:90:8b:0c:62:dd:f7:af:17:a2:18:42:b8:37:bb:bd:2c:
         fa:73:9f:f8:ee:8a:44:49:96:8f:fa:61:df:2b:48:7a:cd:a0:
         5a:df:e5:82:ae:e7:5e:22:78:4c:e6:c4:12:6b:dc:ee:ef:51:
         b3:b7:1c:50:45:fa:b4:ef:d1:3f:09:5d:6e:86:13:2f:cf:19:
         c3:f0:a6:9e:61:94:a9:9e:61:c0:2a:45:dc:a7:02:7f:eb:e3:
         e7:6c:f8:55:5c:a4:7d:89:52:6a:e4:8a:cd:65:4e:9b:99:35:
         39:4a:bd:5d:ce:06:d8:fe:1c:e5:e5:85:d6:ca:34:70:66:a4:
         3c:0f:ea:ab
-----BEGIN CERTIFICATE-----
MIIEaDCCA1CgAwIBAgIUL1YOsAQ6JIKdgEc+QIWJOBR6zPMwDQYJKoZIhvcNAQEL
BQAwaTELMAkGA1UEBhMCQkUxFjAUBgNVBAgMDUVhc3QtRmxhbmRlcnMxDjAMBgNV
BAcMBUdoZW50MRQwEgYDVQQKDAtGQUNUUlkgQlZCQTEcMBoGA1UEAwwTRkFDVFJZ
X09QQ1VBX0xPR0dFUjAeFw0yMTAyMDQxMjA0MjRaFw0zNjAyMDExMjA0MjRaMGkx
CzAJBgNVBAYTAkJFMRYwFAYDVQQIDA1FYXN0LUZsYW5kZXJzMQ4wDAYDVQQHDAVH
aGVudDEUMBIGA1UECgwLRkFDVFJZIEJWQkExHDAaBgNVBAMME0ZBQ1RSWV9PUENV
QV9MT0dHRVIwggEiMA0GCSqGSIb3DQEBAQUAA4IBDwAwggEKAoIBAQDG1ESiUbh3
+TET6NiY38F4SycfsYQV18Blgh4qSHV+MZqTEnsIfEUVmgTbPHufqdAmI6QCEAVp
6ayoFhtDfY2jOoQgMSw21We1m6yelfHYAyh7zpytSdlggjHiH768IDNt4rg2tE1I
ES8le0I+JVHo9JzsG+NK8rn8sQsQzQ5bGovMBfO/Y5Exakcv2cEJcvmSudb4h2mq
IiJJHKUL+VCraibSFcrvnAjttzYQGebEez3gO5C/VmufanLZqf3qIBIHVK6UWPEJ
6u8l29f3D9V0n2ABeJMQgHOMSoJ8Jv1NwYJUNom/O+TiT8WHPiEhLC2P4o4289bp
NmGVQu1lw9b/AgMBAAGjggEGMIIBAjAdBgNVHQ4EFgQU8Y8w4Jpat5+VoRgACA0U
aU9oTVAwHwYDVR0jBBgwFoAU8Y8w4Jpat5+VoRgACA0UaU9oTVAwDAYDVR0TAQH/
BAIwADALBgNVHQ8EBAMCAvQwHQYDVR0lBBYwFAYIKwYBBQUHAwIGCCsGAQUFBwMB
MFIGCWCGSAGG+EIBDQRFFkNTZWxmLXNpZ25lZCBjZXJ0aWZpY2F0ZSBnZW5lcmF0
ZWQgYnkgTm9kZS1PUENVQSBDZXJ0aWZpY2F0ZSB1dGlsaXR5MDIGA1UdEQQrMCmG
E3VybjpmYWN0cnkuaW8vb3BjdWGCEmdhdGV3YXktMjYtMDEtMjAyMTANBgkqhkiG
9w0BAQsFAAOCAQEACAHThipvExk3UNxJiYZiW4sOno9UqwMveYjWCBqaEnVIGWWr
KYHmBr1GV56GFvOM3e6D7NfVV4BJMIaRkfknMp5QRqAhqkyzxej2yxr4wH9kQIP5
ApnaGKpwt+fAiep0OMWFD+H1ED4I/81GcN115tGCVlTQWqOwLJdezS9dxjSQiwxi
3fevF6IYQrg3u70s+nOf+O6KREmWj/ph3ytIes2gWt/lgq7nXiJ4TObEEmvc7u9R
s7ccUEX6tO/RPwldboYTL88Zw/CmnmGUqZ5hwCpF3KcCf+vj52z4VVykfYlSauSK
zWVOm5k1OUq9Xc4G2P4c5eWF1so0cGakPA/qqw==
-----END CERTIFICATE-----
